; Function Attrs: mustprogress nofree norecurse nosync nounwind willreturn memory(argmem: write) uwtable
define void @_ZN5faiss34ProgressiveDimClusteringParametersC2Ev(ptr nocapture noundef nonnull writeonly align 8 dereferenceable(45) %0) unnamed_addr #2 align 2 {
  %2 = getelementptr inbounds i8, ptr %0, i64 4
  store i32 1, ptr %2, align 4
  %3 = getelementptr inbounds i8, ptr %0, i64 8
  %4 = getelementptr inbounds i8, ptr %0, i64 16
  tail call void @llvm.memset.p0.i64(ptr noundef nonnull align 8 dereferenceable(5) %3, i8 0, i64 5, i1 false)
  store i32 39, ptr %4, align 8
  %5 = getelementptr inbounds i8, ptr %0, i64 20
  store i32 256, ptr %5, align 4
  %6 = getelementptr inbounds i8, ptr %0, i64 24
  store i32 1234, ptr %6, align 8
  %7 = getelementptr inbounds i8, ptr %0, i64 32
  store i64 32768, ptr %7, align 8
  %8 = getelementptr inbounds i8, ptr %0, i64 40
  store i32 10, ptr %8, align 8
  %9 = getelementptr inbounds i8, ptr %0, i64 44
  store i8 1, ptr %9, align 4
  store i32 10, ptr %0, align 8
  ret void
}